; ModuleID = '41/236.cpp'
source_filename = "41/236.cpp"
target datalayout = "e-m:e-p270:32:32-p271:32:32-p272:64:64-i64:64-f80:128-n8:16:32:64-S128"
target triple = "x86_64-pc-linux-gnu"

%"class.std::ios_base::Init" = type { i8 }
%"class.std::basic_ostream" = type { i32 (...)**, %"class.std::basic_ios" }
%"class.std::basic_ios" = type { %"class.std::ios_base", %"class.std::basic_ostream"*, i8, i8, %"class.std::basic_streambuf"*, %"class.std::ctype"*, %"class.std::num_put"*, %"class.std::num_get"* }
%"class.std::ios_base" = type { i32 (...)**, i64, i64, i32, i32, i32, %"struct.std::ios_base::_Callback_list"*, %"struct.std::ios_base::_Words", [8 x %"struct.std::ios_base::_Words"], i32, %"struct.std::ios_base::_Words"*, %"class.std::locale" }
%"struct.std::ios_base::_Callback_list" = type { %"struct.std::ios_base::_Callback_list"*, void (i32, %"class.std::ios_base"*, i32)*, i32, i32 }
%"struct.std::ios_base::_Words" = type { i8*, i64 }
%"class.std::locale" = type { %"class.std::locale::_Impl"* }
%"class.std::locale::_Impl" = type { i32, %"class.std::locale::facet"**, i64, %"class.std::locale::facet"**, i8** }
%"class.std::locale::facet" = type <{ i32 (...)**, i32, [4 x i8] }>
%"class.std::basic_streambuf" = type { i32 (...)**, i8*, i8*, i8*, i8*, i8*, i8*, %"class.std::locale" }
%"class.std::ctype" = type <{ %"class.std::locale::facet.base", [4 x i8], %struct.__locale_struct*, i8, [7 x i8], i32*, i32*, i16*, i8, [256 x i8], [256 x i8], i8, [6 x i8] }>
%"class.std::locale::facet.base" = type <{ i32 (...)**, i32 }>
%struct.__locale_struct = type { [13 x %struct.__locale_data*], i16*, i32*, i32*, [13 x i8*] }
%struct.__locale_data = type opaque
%"class.std::num_put" = type { %"class.std::locale::facet.base", [4 x i8] }
%"class.std::num_get" = type { %"class.std::locale::facet.base", [4 x i8] }

@_ZStL8__ioinit = internal global %"class.std::ios_base::Init" zeroinitializer, align 1
@__dso_handle = external hidden global i8
@_ZSt4cout = external dso_local global %"class.std::basic_ostream", align 8
@.str = private unnamed_addr constant [2 x i8] c" \00", align 1
@llvm.global_ctors = appending global [1 x { i32, void ()*, i8* }] [{ i32, void ()*, i8* } { i32 65535, void ()* @_GLOBAL__sub_I_236.cpp, i8* null }]

; Function Attrs: noinline uwtable
define internal void @__cxx_global_var_init() #0 section ".text.startup" {
  call void @_ZNSt8ios_base4InitC1Ev(%"class.std::ios_base::Init"* @_ZStL8__ioinit)
  %1 = call i32 @__cxa_atexit(void (i8*)* bitcast (void (%"class.std::ios_base::Init"*)* @_ZNSt8ios_base4InitD1Ev to void (i8*)*), i8* getelementptr inbounds (%"class.std::ios_base::Init", %"class.std::ios_base::Init"* @_ZStL8__ioinit, i32 0, i32 0), i8* @__dso_handle) #3
  ret void
}

declare dso_local void @_ZNSt8ios_base4InitC1Ev(%"class.std::ios_base::Init"*) unnamed_addr #1

; Function Attrs: nounwind
declare dso_local void @_ZNSt8ios_base4InitD1Ev(%"class.std::ios_base::Init"*) unnamed_addr #2

; Function Attrs: nounwind
declare dso_local i32 @__cxa_atexit(void (i8*)*, i8*, i8*) #3

; Function Attrs: noinline norecurse uwtable
define dso_local i32 @main() #4 {
  %1 = alloca i32, align 4
  %2 = alloca i32, align 4
  %3 = alloca i32, align 4
  %4 = alloca i32, align 4
  %5 = alloca i32, align 4
  %6 = alloca i32, align 4
  %7 = alloca [6 x i32], align 16
  store i32 0, i32* %1, align 4
  store i32 0, i32* %2, align 4
  store i32 0, i32* %3, align 4
  store i32 0, i32* %4, align 4
  store i32 0, i32* %5, align 4
  store i32 0, i32* %6, align 4
  %8 = bitcast [6 x i32]* %7 to i8*
  call void @llvm.memset.p0i8.i64(i8* align 16 %8, i8 0, i64 24, i1 false)
  store i32 1, i32* %2, align 4
  br label %9

9:                                                ; preds = %141, %0
  %10 = load i32, i32* %2, align 4
  %11 = icmp sle i32 %10, 5
  br i1 %11, label %12, label %144

12:                                               ; preds = %9
  store i32 1, i32* %3, align 4
  br label %13

13:                                               ; preds = %137, %12
  %14 = load i32, i32* %3, align 4
  %15 = icmp sle i32 %14, 5
  br i1 %15, label %16, label %140

16:                                               ; preds = %13
  %17 = load i32, i32* %2, align 4
  %18 = load i32, i32* %3, align 4
  %19 = icmp eq i32 %17, %18
  br i1 %19, label %20, label %21

20:                                               ; preds = %16
  br label %137

21:                                               ; preds = %16
  store i32 1, i32* %4, align 4
  br label %22

22:                                               ; preds = %133, %21
  %23 = load i32, i32* %4, align 4
  %24 = icmp sle i32 %23, 5
  br i1 %24, label %25, label %136

25:                                               ; preds = %22
  %26 = load i32, i32* %2, align 4
  %27 = load i32, i32* %4, align 4
  %28 = icmp eq i32 %26, %27
  br i1 %28, label %33, label %29

29:                                               ; preds = %25
  %30 = load i32, i32* %3, align 4
  %31 = load i32, i32* %4, align 4
  %32 = icmp eq i32 %30, %31
  br i1 %32, label %33, label %34

33:                                               ; preds = %29, %25
  br label %133

34:                                               ; preds = %29
  store i32 1, i32* %5, align 4
  br label %35

35:                                               ; preds = %129, %34
  %36 = load i32, i32* %5, align 4
  %37 = icmp sle i32 %36, 5
  br i1 %37, label %38, label %132

38:                                               ; preds = %35
  %39 = load i32, i32* %2, align 4
  %40 = load i32, i32* %5, align 4
  %41 = icmp eq i32 %39, %40
  br i1 %41, label %50, label %42

42:                                               ; preds = %38
  %43 = load i32, i32* %3, align 4
  %44 = load i32, i32* %5, align 4
  %45 = icmp eq i32 %43, %44
  br i1 %45, label %50, label %46

46:                                               ; preds = %42
  %47 = load i32, i32* %4, align 4
  %48 = load i32, i32* %5, align 4
  %49 = icmp eq i32 %47, %48
  br i1 %49, label %50, label %51

50:                                               ; preds = %46, %42, %38
  br label %129

51:                                               ; preds = %46
  %52 = load i32, i32* %2, align 4
  %53 = sub nsw i32 15, %52
  %54 = load i32, i32* %3, align 4
  %55 = sub nsw i32 %53, %54
  %56 = load i32, i32* %4, align 4
  %57 = sub nsw i32 %55, %56
  %58 = load i32, i32* %5, align 4
  %59 = sub nsw i32 %57, %58
  store i32 %59, i32* %6, align 4
  %60 = load i32, i32* %6, align 4
  %61 = icmp eq i32 %60, 2
  br i1 %61, label %65, label %62

62:                                               ; preds = %51
  %63 = load i32, i32* %6, align 4
  %64 = icmp eq i32 %63, 3
  br i1 %64, label %65, label %66

65:                                               ; preds = %62, %51
  br label %129

66:                                               ; preds = %62
  %67 = load i32, i32* %6, align 4
  %68 = icmp eq i32 %67, 1
  %69 = zext i1 %68 to i32
  %70 = load i32, i32* %2, align 4
  %71 = sext i32 %70 to i64
  %72 = getelementptr inbounds [6 x i32], [6 x i32]* %7, i64 0, i64 %71
  store i32 %69, i32* %72, align 4
  %73 = load i32, i32* %3, align 4
  %74 = icmp eq i32 %73, 2
  %75 = zext i1 %74 to i32
  %76 = load i32, i32* %3, align 4
  %77 = sext i32 %76 to i64
  %78 = getelementptr inbounds [6 x i32], [6 x i32]* %7, i64 0, i64 %77
  store i32 %75, i32* %78, align 4
  %79 = load i32, i32* %2, align 4
  %80 = icmp eq i32 %79, 5
  %81 = zext i1 %80 to i32
  %82 = load i32, i32* %4, align 4
  %83 = sext i32 %82 to i64
  %84 = getelementptr inbounds [6 x i32], [6 x i32]* %7, i64 0, i64 %83
  store i32 %81, i32* %84, align 4
  %85 = load i32, i32* %4, align 4
  %86 = icmp ne i32 %85, 1
  %87 = zext i1 %86 to i32
  %88 = load i32, i32* %5, align 4
  %89 = sext i32 %88 to i64
  %90 = getelementptr inbounds [6 x i32], [6 x i32]* %7, i64 0, i64 %89
  store i32 %87, i32* %90, align 4
  %91 = load i32, i32* %5, align 4
  %92 = icmp eq i32 %91, 1
  %93 = zext i1 %92 to i32
  %94 = load i32, i32* %6, align 4
  %95 = sext i32 %94 to i64
  %96 = getelementptr inbounds [6 x i32], [6 x i32]* %7, i64 0, i64 %95
  store i32 %93, i32* %96, align 4
  %97 = getelementptr inbounds [6 x i32], [6 x i32]* %7, i64 0, i64 1
  %98 = load i32, i32* %97, align 4
  %99 = getelementptr inbounds [6 x i32], [6 x i32]* %7, i64 0, i64 2
  %100 = load i32, i32* %99, align 8
  %101 = add nsw i32 %98, %100
  %102 = icmp eq i32 %101, 2
  br i1 %102, label %103, label %128

103:                                              ; preds = %66
  %104 = getelementptr inbounds [6 x i32], [6 x i32]* %7, i64 0, i64 3
  %105 = load i32, i32* %104, align 4
  %106 = getelementptr inbounds [6 x i32], [6 x i32]* %7, i64 0, i64 4
  %107 = load i32, i32* %106, align 16
  %108 = add nsw i32 %105, %107
  %109 = getelementptr inbounds [6 x i32], [6 x i32]* %7, i64 0, i64 5
  %110 = load i32, i32* %109, align 4
  %111 = add nsw i32 %108, %110
  %112 = icmp eq i32 %111, 0
  br i1 %112, label %113, label %128

113:                                              ; preds = %103
  %114 = load i32, i32* %2, align 4
  %115 = call dereferenceable(272) %"class.std::basic_ostream"* @_ZNSolsEi(%"class.std::basic_ostream"* @_ZSt4cout, i32 %114)
  %116 = call dereferenceable(272) %"class.std::basic_ostream"* @_ZStlsISt11char_traitsIcEERSt13basic_ostreamIcT_ES5_PKc(%"class.std::basic_ostream"* dereferenceable(272) %115, i8* getelementptr inbounds ([2 x i8], [2 x i8]* @.str, i64 0, i64 0))
  %117 = load i32, i32* %3, align 4
  %118 = call dereferenceable(272) %"class.std::basic_ostream"* @_ZNSolsEi(%"class.std::basic_ostream"* %116, i32 %117)
  %119 = call dereferenceable(272) %"class.std::basic_ostream"* @_ZStlsISt11char_traitsIcEERSt13basic_ostreamIcT_ES5_PKc(%"class.std::basic_ostream"* dereferenceable(272) %118, i8* getelementptr inbounds ([2 x i8], [2 x i8]* @.str, i64 0, i64 0))
  %120 = load i32, i32* %4, align 4
  %121 = call dereferenceable(272) %"class.std::basic_ostream"* @_ZNSolsEi(%"class.std::basic_ostream"* %119, i32 %120)
  %122 = call dereferenceable(272) %"class.std::basic_ostream"* @_ZStlsISt11char_traitsIcEERSt13basic_ostreamIcT_ES5_PKc(%"class.std::basic_ostream"* dereferenceable(272) %121, i8* getelementptr inbounds ([2 x i8], [2 x i8]* @.str, i64 0, i64 0))
  %123 = load i32, i32* %5, align 4
  %124 = call dereferenceable(272) %"class.std::basic_ostream"* @_ZNSolsEi(%"class.std::basic_ostream"* %122, i32 %123)
  %125 = call dereferenceable(272) %"class.std::basic_ostream"* @_ZStlsISt11char_traitsIcEERSt13basic_ostreamIcT_ES5_PKc(%"class.std::basic_ostream"* dereferenceable(272) %124, i8* getelementptr inbounds ([2 x i8], [2 x i8]* @.str, i64 0, i64 0))
  %126 = load i32, i32* %6, align 4
  %127 = call dereferenceable(272) %"class.std::basic_ostream"* @_ZNSolsEi(%"class.std::basic_ostream"* %125, i32 %126)
  br label %128

128:                                              ; preds = %113, %103, %66
  br label %129

129:                                              ; preds = %128, %65, %50
  %130 = load i32, i32* %5, align 4
  %131 = add nsw i32 %130, 1
  store i32 %131, i32* %5, align 4
  br label %35

132:                                              ; preds = %35
  br label %133

133:                                              ; preds = %132, %33
  %134 = load i32, i32* %4, align 4
  %135 = add nsw i32 %134, 1
  store i32 %135, i32* %4, align 4
  br label %22

136:                                              ; preds = %22
  br label %137

137:                                              ; preds = %136, %20
  %138 = load i32, i32* %3, align 4
  %139 = add nsw i32 %138, 1
  store i32 %139, i32* %3, align 4
  br label %13

140:                                              ; preds = %13
  br label %141

141:                                              ; preds = %140
  %142 = load i32, i32* %2, align 4
  %143 = add nsw i32 %142, 1
  store i32 %143, i32* %2, align 4
  br label %9

144:                                              ; preds = %9
  ret i32 0
}

; Function Attrs: argmemonly nounwind willreturn
declare void @llvm.memset.p0i8.i64(i8* nocapture writeonly, i8, i64, i1 immarg) #5

declare dso_local dereferenceable(272) %"class.std::basic_ostream"* @_ZStlsISt11char_traitsIcEERSt13basic_ostreamIcT_ES5_PKc(%"class.std::basic_ostream"* dereferenceable(272), i8*) #1

declare dso_local dereferenceable(272) %"class.std::basic_ostream"* @_ZNSolsEi(%"class.std::basic_ostream"*, i32) #1

; Function Attrs: noinline uwtable
define internal void @_GLOBAL__sub_I_236.cpp() #0 section ".text.startup" {
  call void @__cxx_global_var_init()
  ret void
}


!llvm.module.flags = !{!0}
!llvm.ident = !{!1}

!0 = !{i32 1, !"wchar_size", i32 4}
!1 = !{!"clang version 10.0.0-4ubuntu1 "}
