; ModuleID = 'source-C-CXX/40/236.cpp'
source_filename = "source-C-CXX/40/236.cpp"
target datalayout = "e-m:e-p270:32:32-p271:32:32-p272:64:64-i64:64-f80:128-n8:16:32:64-S128"
target triple = "x86_64-pc-linux-gnu"

%"class.std::ios_base::Init" = type { i8 }
%"class.std::basic_ostream" = type { i32 (...)**, %"class.std::basic_ios" }
%"class.std::basic_ios" = type { %"class.std::ios_base", %"class.std::basic_ostream"*, i8, i8, %"class.std::basic_streambuf"*, %"class.std::ctype"*, %"class.std::num_put"*, %"class.std::num_get"* }
%"class.std::ios_base" = type { i32 (...)**, i64, i64, i32, i32, i32, %"struct.std::ios_base::_Callback_list"*, %"struct.std::ios_base::_Words", [8 x %"struct.std::ios_base::_Words"], i32, %"struct.std::ios_base::_Words"*, %"class.std::locale" }
%"struct.std::ios_base::_Callback_list" = type { %"struct.std::ios_base::_Callback_list"*, void (i32, %"class.std::ios_base"*, i32)*, i32, i32 }
%"struct.std::ios_base::_Words" = type { i8*, i64 }
%"class.std::locale" = type { %"class.std::locale::_Impl"* }
%"class.std::locale::_Impl" = type { i32, %"class.std::locale::facet"**, i64, %"class.std::locale::facet"**, i8** }
%"class.std::locale::facet" = type <{ i32 (...)**, i32, [4 x i8] }>
%"class.std::basic_streambuf" = type { i32 (...)**, i8*, i8*, i8*, i8*, i8*, i8*, %"class.std::locale" }
%"class.std::ctype" = type <{ %"class.std::locale::facet.base", [4 x i8], %struct.__locale_struct*, i8, [7 x i8], i32*, i32*, i16*, i8, [256 x i8], [256 x i8], i8, [6 x i8] }>
%"class.std::locale::facet.base" = type <{ i32 (...)**, i32 }>
%struct.__locale_struct = type { [13 x %struct.__locale_data*], i16*, i32*, i32*, [13 x i8*] }
%struct.__locale_data = type opaque
%"class.std::num_put" = type { %"class.std::locale::facet.base", [4 x i8] }
%"class.std::num_get" = type { %"class.std::locale::facet.base", [4 x i8] }

@_ZStL8__ioinit = internal global %"class.std::ios_base::Init" zeroinitializer, align 1
@__dso_handle = external hidden global i8
@_ZSt4cout = external global %"class.std::basic_ostream", align 8
@.str = private unnamed_addr constant [2 x i8] c" \00", align 1
@llvm.global_ctors = appending global [1 x { i32, void ()*, i8* }] [{ i32, void ()*, i8* } { i32 65535, void ()* @_GLOBAL__sub_I_236.cpp, i8* null }]

declare void @_ZNSt8ios_base4InitC1Ev(%"class.std::ios_base::Init"* nonnull align 1 dereferenceable(1)) unnamed_addr #0

; Function Attrs: nounwind
declare void @_ZNSt8ios_base4InitD1Ev(%"class.std::ios_base::Init"* nonnull align 1 dereferenceable(1)) unnamed_addr #1

; Function Attrs: nofree nounwind
declare i32 @__cxa_atexit(void (i8*)*, i8*, i8*) local_unnamed_addr #2

; Function Attrs: mustprogress norecurse sspstrong uwtable
define dso_local i32 @main() local_unnamed_addr #3 {
  %1 = alloca [6 x i32], align 16
  %2 = bitcast [6 x i32]* %1 to i8*
  call void @llvm.lifetime.start.p0i8(i64 24, i8* nonnull %2) #7
  call void @llvm.memset.p0i8.i64(i8* noundef nonnull align 16 dereferenceable(24) %2, i8 0, i64 24, i1 false)
  %3 = getelementptr inbounds [6 x i32], [6 x i32]* %1, i64 0, i64 1
  %4 = getelementptr inbounds [6 x i32], [6 x i32]* %1, i64 0, i64 2
  %5 = getelementptr inbounds [6 x i32], [6 x i32]* %1, i64 0, i64 3
  %6 = getelementptr inbounds [6 x i32], [6 x i32]* %1, i64 0, i64 4
  %7 = getelementptr inbounds [6 x i32], [6 x i32]* %1, i64 0, i64 5
  br label %8

8:                                                ; preds = %0, %85
  %9 = phi i64 [ 1, %0 ], [ %86, %85 ]
  %10 = getelementptr inbounds [6 x i32], [6 x i32]* %1, i64 0, i64 %9
  %11 = icmp eq i64 %9, 5
  %12 = zext i1 %11 to i32
  %13 = trunc i64 %9 to i32
  br label %14

14:                                               ; preds = %8, %82
  %15 = phi i64 [ 1, %8 ], [ %83, %82 ]
  %16 = icmp eq i64 %9, %15
  br i1 %16, label %82, label %17

17:                                               ; preds = %14
  %18 = add nuw nsw i64 %9, %15
  %19 = icmp eq i64 %15, 2
  %20 = zext i1 %19 to i32
  %21 = getelementptr inbounds [6 x i32], [6 x i32]* %1, i64 0, i64 %15
  %22 = trunc i64 %15 to i32
  br label %23

23:                                               ; preds = %17, %79
  %24 = phi i64 [ 1, %17 ], [ %80, %79 ]
  %25 = icmp eq i64 %9, %24
  %26 = icmp eq i64 %15, %24
  %27 = select i1 %25, i1 true, i1 %26
  br i1 %27, label %79, label %28

28:                                               ; preds = %23
  %29 = add nuw nsw i64 %18, %24
  %30 = getelementptr inbounds [6 x i32], [6 x i32]* %1, i64 0, i64 %24
  %31 = icmp ne i64 %24, 1
  %32 = zext i1 %31 to i32
  %33 = trunc i64 %24 to i32
  br label %34

34:                                               ; preds = %28, %76
  %35 = phi i64 [ 1, %28 ], [ %77, %76 ]
  %36 = icmp eq i64 %9, %35
  %37 = icmp eq i64 %15, %35
  %38 = select i1 %36, i1 true, i1 %37
  %39 = icmp eq i64 %24, %35
  %40 = select i1 %38, i1 true, i1 %39
  br i1 %40, label %76, label %41

41:                                               ; preds = %34
  %42 = add nuw nsw i64 %29, %35
  %43 = sub nsw i64 15, %42
  %44 = trunc i64 %43 to i32
  %45 = and i32 %44, -2
  %46 = icmp eq i32 %45, 2
  br i1 %46, label %76, label %47

47:                                               ; preds = %41
  %48 = icmp eq i64 %43, 1
  %49 = zext i1 %48 to i32
  store i32 %49, i32* %10, align 4, !tbaa !5
  store i32 %20, i32* %21, align 4, !tbaa !5
  store i32 %12, i32* %30, align 4, !tbaa !5
  %50 = getelementptr inbounds [6 x i32], [6 x i32]* %1, i64 0, i64 %35
  store i32 %32, i32* %50, align 4, !tbaa !5
  %51 = icmp eq i64 %35, 1
  %52 = zext i1 %51 to i32
  %53 = getelementptr inbounds [6 x i32], [6 x i32]* %1, i64 0, i64 %43
  store i32 %52, i32* %53, align 4, !tbaa !5
  %54 = load i32, i32* %3, align 4, !tbaa !5
  %55 = load i32, i32* %4, align 8, !tbaa !5
  %56 = add nsw i32 %55, %54
  %57 = icmp eq i32 %56, 2
  br i1 %57, label %58, label %76

58:                                               ; preds = %47
  %59 = load i32, i32* %5, align 4, !tbaa !5
  %60 = load i32, i32* %6, align 16, !tbaa !5
  %61 = add nsw i32 %60, %59
  %62 = load i32, i32* %7, align 4, !tbaa !5
  %63 = sub i32 0, %62
  %64 = icmp eq i32 %61, %63
  br i1 %64, label %65, label %76

65:                                               ; preds = %58
  %66 = tail call nonnull align 8 dereferenceable(8) %"class.std::basic_ostream"* @_ZNSolsEi(%"class.std::basic_ostream"* nonnull align 8 dereferenceable(8) @_ZSt4cout, i32 %13)
  %67 = tail call nonnull align 8 dereferenceable(8) %"class.std::basic_ostream"* @_ZSt16__ostream_insertIcSt11char_traitsIcEERSt13basic_ostreamIT_T0_ES6_PKS3_l(%"class.std::basic_ostream"* nonnull align 8 dereferenceable(8) %66, i8* nonnull getelementptr inbounds ([2 x i8], [2 x i8]* @.str, i64 0, i64 0), i64 1)
  %68 = tail call nonnull align 8 dereferenceable(8) %"class.std::basic_ostream"* @_ZNSolsEi(%"class.std::basic_ostream"* nonnull align 8 dereferenceable(8) %66, i32 %22)
  %69 = tail call nonnull align 8 dereferenceable(8) %"class.std::basic_ostream"* @_ZSt16__ostream_insertIcSt11char_traitsIcEERSt13basic_ostreamIT_T0_ES6_PKS3_l(%"class.std::basic_ostream"* nonnull align 8 dereferenceable(8) %68, i8* nonnull getelementptr inbounds ([2 x i8], [2 x i8]* @.str, i64 0, i64 0), i64 1)
  %70 = tail call nonnull align 8 dereferenceable(8) %"class.std::basic_ostream"* @_ZNSolsEi(%"class.std::basic_ostream"* nonnull align 8 dereferenceable(8) %68, i32 %33)
  %71 = tail call nonnull align 8 dereferenceable(8) %"class.std::basic_ostream"* @_ZSt16__ostream_insertIcSt11char_traitsIcEERSt13basic_ostreamIT_T0_ES6_PKS3_l(%"class.std::basic_ostream"* nonnull align 8 dereferenceable(8) %70, i8* nonnull getelementptr inbounds ([2 x i8], [2 x i8]* @.str, i64 0, i64 0), i64 1)
  %72 = trunc i64 %35 to i32
  %73 = tail call nonnull align 8 dereferenceable(8) %"class.std::basic_ostream"* @_ZNSolsEi(%"class.std::basic_ostream"* nonnull align 8 dereferenceable(8) %70, i32 %72)
  %74 = tail call nonnull align 8 dereferenceable(8) %"class.std::basic_ostream"* @_ZSt16__ostream_insertIcSt11char_traitsIcEERSt13basic_ostreamIT_T0_ES6_PKS3_l(%"class.std::basic_ostream"* nonnull align 8 dereferenceable(8) %73, i8* nonnull getelementptr inbounds ([2 x i8], [2 x i8]* @.str, i64 0, i64 0), i64 1)
  %75 = tail call nonnull align 8 dereferenceable(8) %"class.std::basic_ostream"* @_ZNSolsEi(%"class.std::basic_ostream"* nonnull align 8 dereferenceable(8) %73, i32 %44)
  br label %76

76:                                               ; preds = %47, %58, %65, %41, %34
  %77 = add nuw nsw i64 %35, 1
  %78 = icmp eq i64 %77, 6
  br i1 %78, label %79, label %34, !llvm.loop !9

79:                                               ; preds = %76, %23
  %80 = add nuw nsw i64 %24, 1
  %81 = icmp eq i64 %80, 6
  br i1 %81, label %82, label %23, !llvm.loop !11

82:                                               ; preds = %79, %14
  %83 = add nuw nsw i64 %15, 1
  %84 = icmp eq i64 %83, 6
  br i1 %84, label %85, label %14, !llvm.loop !12

85:                                               ; preds = %82
  %86 = add nuw nsw i64 %9, 1
  %87 = icmp eq i64 %86, 6
  br i1 %87, label %88, label %8, !llvm.loop !13

88:                                               ; preds = %85
  call void @llvm.lifetime.end.p0i8(i64 24, i8* nonnull %2) #7
  ret i32 0
}

; Function Attrs: argmemonly mustprogress nofree nosync nounwind willreturn
declare void @llvm.lifetime.start.p0i8(i64 immarg, i8* nocapture) #4

; Function Attrs: argmemonly mustprogress nofree nounwind willreturn writeonly
declare void @llvm.memset.p0i8.i64(i8* nocapture writeonly, i8, i64, i1 immarg) #5

declare nonnull align 8 dereferenceable(8) %"class.std::basic_ostream"* @_ZNSolsEi(%"class.std::basic_ostream"* nonnull align 8 dereferenceable(8), i32) local_unnamed_addr #0

; Function Attrs: argmemonly mustprogress nofree nosync nounwind willreturn
declare void @llvm.lifetime.end.p0i8(i64 immarg, i8* nocapture) #4

declare nonnull align 8 dereferenceable(8) %"class.std::basic_ostream"* @_ZSt16__ostream_insertIcSt11char_traitsIcEERSt13basic_ostreamIT_T0_ES6_PKS3_l(%"class.std::basic_ostream"* nonnull align 8 dereferenceable(8), i8*, i64) local_unnamed_addr #0

; Function Attrs: sspstrong uwtable
define internal void @_GLOBAL__sub_I_236.cpp() #6 section ".text.startup" {
  tail call void @_ZNSt8ios_base4InitC1Ev(%"class.std::ios_base::Init"* nonnull align 1 dereferenceable(1) @_ZStL8__ioinit)
  %1 = tail call i32 @__cxa_atexit(void (i8*)* bitcast (void (%"class.std::ios_base::Init"*)* @_ZNSt8ios_base4InitD1Ev to void (i8*)*), i8* getelementptr inbounds (%"class.std::ios_base::Init", %"class.std::ios_base::Init"* @_ZStL8__ioinit, i64 0, i32 0), i8* nonnull @__dso_handle) #7
  ret void
}


!llvm.module.flags = !{!0, !1, !2, !3}
!llvm.ident = !{!4}

!0 = !{i32 1, !"wchar_size", i32 4}
!1 = !{i32 7, !"PIC Level", i32 2}
!2 = !{i32 7, !"PIE Level", i32 2}
!3 = !{i32 7, !"uwtable", i32 1}
!4 = !{!"clang version 13.0.0"}
!5 = !{!6, !6, i64 0}
!6 = !{!"int", !7, i64 0}
!7 = !{!"omnipotent char", !8, i64 0}
!8 = !{!"Simple C++ TBAA"}
!9 = distinct !{!9, !10}
!10 = !{!"llvm.loop.mustprogress"}
!11 = distinct !{!11, !10}
!12 = distinct !{!12, !10}
!13 = distinct !{!13, !10}
